ARM GAS  /tmp/ccz5dndb.s 			page 1


   1              		.cpu cortex-m4
   2              		.arch armv7e-m
   3              		.fpu fpv4-sp-d16
   4              		.eabi_attribute 27, 1
   5              		.eabi_attribute 28, 1
   6              		.eabi_attribute 20, 1
   7              		.eabi_attribute 21, 1
   8              		.eabi_attribute 23, 3
   9              		.eabi_attribute 24, 1
  10              		.eabi_attribute 25, 1
  11              		.eabi_attribute 26, 1
  12              		.eabi_attribute 30, 1
  13              		.eabi_attribute 34, 1
  14              		.eabi_attribute 18, 4
  15              		.file	"init.c"
  16              		.text
  17              	.Ltext0:
  18              		.cfi_sections	.debug_frame
  19              		.file 1 "Core/Src/init.c"
  20              		.section	.text.GPIO_Ini,"ax",%progbits
  21              		.align	1
  22              		.global	GPIO_Ini
  23              		.syntax unified
  24              		.thumb
  25              		.thumb_func
  27              	GPIO_Ini:
  28              	.LFB130:
   1:Core/Src/init.c **** #include <init.h>
   2:Core/Src/init.c **** 
   3:Core/Src/init.c **** void GPIO_Ini(void){
  29              		.loc 1 3 20 view -0
  30              		.cfi_startproc
  31              		@ args = 0, pretend = 0, frame = 0
  32              		@ frame_needed = 0, uses_anonymous_args = 0
  33              		@ link register save eliminated.
   4:Core/Src/init.c ****         SET_BIT(RCC->AHB1ENR, RCC_AHB1ENR_GPIOBEN | RCC_AHB1ENR_GPIOCEN);
  34              		.loc 1 4 9 view .LVU1
  35 0000 024A     		ldr	r2, .L2
  36 0002 136B     		ldr	r3, [r2, #48]
  37 0004 43F00603 		orr	r3, r3, #6
  38 0008 1363     		str	r3, [r2, #48]
   5:Core/Src/init.c **** }
  39              		.loc 1 5 1 is_stmt 0 view .LVU2
  40 000a 7047     		bx	lr
  41              	.L3:
  42              		.align	2
  43              	.L2:
  44 000c 00380240 		.word	1073887232
  45              		.cfi_endproc
  46              	.LFE130:
  48              		.section	.text.GPIO_Ini_Self_Def,"ax",%progbits
  49              		.align	1
  50              		.global	GPIO_Ini_Self_Def
  51              		.syntax unified
  52              		.thumb
  53              		.thumb_func
  55              	GPIO_Ini_Self_Def:
ARM GAS  /tmp/ccz5dndb.s 			page 2


  56              	.LFB131:
   6:Core/Src/init.c **** 
   7:Core/Src/init.c **** void GPIO_Ini_Self_Def(void){
  57              		.loc 1 7 29 is_stmt 1 view -0
  58              		.cfi_startproc
  59              		@ args = 0, pretend = 0, frame = 0
  60              		@ frame_needed = 0, uses_anonymous_args = 0
  61              		@ link register save eliminated.
   8:Core/Src/init.c ****         
   9:Core/Src/init.c **** }
  62              		.loc 1 9 1 view .LVU4
  63 0000 7047     		bx	lr
  64              		.cfi_endproc
  65              	.LFE131:
  67              		.section	.text.GPIO_Ini_CMSIS,"ax",%progbits
  68              		.align	1
  69              		.global	GPIO_Ini_CMSIS
  70              		.syntax unified
  71              		.thumb
  72              		.thumb_func
  74              	GPIO_Ini_CMSIS:
  75              	.LFB132:
  10:Core/Src/init.c **** 
  11:Core/Src/init.c **** void GPIO_Ini_CMSIS(void){
  76              		.loc 1 11 26 view -0
  77              		.cfi_startproc
  78              		@ args = 0, pretend = 0, frame = 0
  79              		@ frame_needed = 0, uses_anonymous_args = 0
  80              		@ link register save eliminated.
  12:Core/Src/init.c ****         SET_BIT(GPIOB->MODER, GPIO_MODER_MODE7_0);
  81              		.loc 1 12 9 view .LVU6
  82 0000 184B     		ldr	r3, .L6
  83 0002 1A68     		ldr	r2, [r3]
  84 0004 42F48042 		orr	r2, r2, #16384
  85 0008 1A60     		str	r2, [r3]
  13:Core/Src/init.c ****         CLEAR_BIT(GPIOB->OTYPER, GPIO_OTYPER_OT_7);
  86              		.loc 1 13 9 view .LVU7
  87 000a 5A68     		ldr	r2, [r3, #4]
  88 000c 22F08002 		bic	r2, r2, #128
  89 0010 5A60     		str	r2, [r3, #4]
  14:Core/Src/init.c ****         SET_BIT(GPIOB->OSPEEDR, GPIO_OSPEEDER_OSPEEDR7_0);
  90              		.loc 1 14 9 view .LVU8
  91 0012 9A68     		ldr	r2, [r3, #8]
  92 0014 42F48042 		orr	r2, r2, #16384
  93 0018 9A60     		str	r2, [r3, #8]
  15:Core/Src/init.c ****         CLEAR_BIT(GPIOB->PUPDR, GPIO_PUPDR_PUPDR7_0);
  94              		.loc 1 15 9 view .LVU9
  95 001a DA68     		ldr	r2, [r3, #12]
  96 001c 22F48042 		bic	r2, r2, #16384
  97 0020 DA60     		str	r2, [r3, #12]
  16:Core/Src/init.c **** 
  17:Core/Src/init.c ****         SET_BIT(GPIOB->MODER, GPIO_MODER_MODE14_0);
  98              		.loc 1 17 9 view .LVU10
  99 0022 1A68     		ldr	r2, [r3]
 100 0024 42F08052 		orr	r2, r2, #268435456
 101 0028 1A60     		str	r2, [r3]
  18:Core/Src/init.c ****         CLEAR_BIT(GPIOB->OTYPER, GPIO_OTYPER_OT_14);
ARM GAS  /tmp/ccz5dndb.s 			page 3


 102              		.loc 1 18 9 view .LVU11
 103 002a 5A68     		ldr	r2, [r3, #4]
 104 002c 22F48042 		bic	r2, r2, #16384
 105 0030 5A60     		str	r2, [r3, #4]
  19:Core/Src/init.c ****         SET_BIT(GPIOB->OSPEEDR, GPIO_OSPEEDER_OSPEEDR14_0);
 106              		.loc 1 19 9 view .LVU12
 107 0032 9A68     		ldr	r2, [r3, #8]
 108 0034 42F08052 		orr	r2, r2, #268435456
 109 0038 9A60     		str	r2, [r3, #8]
  20:Core/Src/init.c ****         CLEAR_BIT(GPIOB->PUPDR, GPIO_PUPDR_PUPDR7_0);
 110              		.loc 1 20 9 view .LVU13
 111 003a DA68     		ldr	r2, [r3, #12]
 112 003c 22F48042 		bic	r2, r2, #16384
 113 0040 DA60     		str	r2, [r3, #12]
  21:Core/Src/init.c **** 
  22:Core/Src/init.c ****         SET_BIT(GPIOB->MODER, GPIO_MODER_MODE0_0);
 114              		.loc 1 22 9 view .LVU14
 115 0042 1A68     		ldr	r2, [r3]
 116 0044 42F00102 		orr	r2, r2, #1
 117 0048 1A60     		str	r2, [r3]
  23:Core/Src/init.c ****         CLEAR_BIT(GPIOB->OTYPER, GPIO_OTYPER_OT_0);
 118              		.loc 1 23 9 view .LVU15
 119 004a 5A68     		ldr	r2, [r3, #4]
 120 004c 22F00102 		bic	r2, r2, #1
 121 0050 5A60     		str	r2, [r3, #4]
  24:Core/Src/init.c ****         SET_BIT(GPIOB->OSPEEDR, GPIO_OSPEEDER_OSPEEDR0_0);
 122              		.loc 1 24 9 view .LVU16
 123 0052 9A68     		ldr	r2, [r3, #8]
 124 0054 42F00102 		orr	r2, r2, #1
 125 0058 9A60     		str	r2, [r3, #8]
  25:Core/Src/init.c ****         CLEAR_BIT(GPIOB->PUPDR, GPIO_PUPDR_PUPDR0_0);
 126              		.loc 1 25 9 view .LVU17
 127 005a DA68     		ldr	r2, [r3, #12]
 128 005c 22F00102 		bic	r2, r2, #1
 129 0060 DA60     		str	r2, [r3, #12]
  26:Core/Src/init.c **** }...
 130              		.loc 1 26 1 is_stmt 0 view .LVU18
 131 0062 7047     		bx	lr
 132              	.L7:
 133              		.align	2
 134              	.L6:
 135 0064 00040240 		.word	1073873920
 136              		.cfi_endproc
 137              	.LFE132:
 139              		.text
 140              	.Letext0:
 141              		.file 2 "/usr/arm-none-eabi/include/machine/_default_types.h"
 142              		.file 3 "/usr/arm-none-eabi/include/sys/_stdint.h"
 143              		.file 4 "/home/mns94/tpu/dmt/Laboratory_Practice/CMSIS/Devices/stm32f429xx.h"
ARM GAS  /tmp/ccz5dndb.s 			page 4

